target datalayout = "e-m:e-p270:32:32-p271:32:32-p272:64:64-i64:64-i128:128-f80:128-n8:16:32:64-S128"
target triple = "x86_64-pc-linux-gnu"

%struct.context_type = type { ptr, ptr, i32, i8, ptr, [16 x %struct.alloc_stack_type], i32, ptr, i32, i32, ptr, %struct.hash_table_type, i32, i32, i32, i32, i32, i32, i32, i32, ptr, ptr, i32, ptr, ptr, ptr, ptr, i32, i32, [4 x i32], i32, i32, ptr, ptr, ptr, i32, [1 x %struct.__jmp_buf_tag] }
%struct.alloc_stack_type = type { ptr, i32, ptr }
%struct.hash_table_type = type { ptr, ptr, i32 }
%struct.__jmp_buf_tag = type { [8 x i64], i32, %struct.__sigset_t }
%struct.__sigset_t = type { [16 x i64] }
%struct.CCpool = type { ptr, i32, i32, [2000 x i8] }

; Function Attrs: nounwind uwtable
define internal void @CCout_of_memory(ptr noundef %0) #0 {
  %2 = alloca ptr, align 8
  %3 = alloca i32, align 4
  store ptr %0, ptr %2, align 8
  %4 = load ptr, ptr %2, align 8
  %5 = call i32 @print_CCerror_info(ptr noundef %4)
  store i32 %5, ptr %3, align 4
  %6 = load ptr, ptr %2, align 8
  %7 = getelementptr inbounds %struct.context_type, ptr %6, i32 0, i32 3
  store i8 2, ptr %7, align 4
  %8 = load ptr, ptr %2, align 8
  %9 = getelementptr inbounds %struct.context_type, ptr %8, i32 0, i32 36
  %10 = getelementptr inbounds [1 x %struct.__jmp_buf_tag], ptr %9, i64 0, i64 0
  call void @longjmp(ptr noundef %10, i32 noundef 1) #12
  unreachable
}

; Function Attrs: nounwind uwtable
define internal ptr @CCalloc(ptr noundef %0, i32 noundef %1, i8 noundef zeroext %2) #0 {
  %4 = alloca ptr, align 8
  %5 = alloca i32, align 4
  %6 = alloca i8, align 1
  %7 = alloca ptr, align 8
  %8 = alloca ptr, align 8
  %9 = alloca ptr, align 8
  store ptr %0, ptr %4, align 8
  store i32 %1, ptr %5, align 4
  store i8 %2, ptr %6, align 1
  %10 = load i32, ptr %5, align 4
  %11 = sext i32 %10 to i64
  %12 = add i64 %11, 7
  %13 = and i64 %12, -8
  %14 = trunc i64 %13 to i32
  store i32 %14, ptr %5, align 4
  %15 = load ptr, ptr %4, align 8
  %16 = getelementptr inbounds %struct.context_type, ptr %15, i32 0, i32 35
  %17 = load i32, ptr %16, align 8
  %18 = load i32, ptr %5, align 4
  %19 = icmp slt i32 %17, %18
  br i1 %19, label %20, label %83

20:                                               ; preds = %3
  %21 = load ptr, ptr %4, align 8
  %22 = getelementptr inbounds %struct.context_type, ptr %21, i32 0, i32 33
  %23 = load ptr, ptr %22, align 8
  store ptr %23, ptr %8, align 8
  %24 = load i32, ptr %5, align 4
  %25 = icmp sgt i32 %24, 2000
  br i1 %25, label %26, label %48

26:                                               ; preds = %20
  %27 = load i32, ptr %5, align 4
  %28 = sub nsw i32 %27, 2000
  %29 = sext i32 %28 to i64
  %30 = add i64 2016, %29
  %31 = call noalias ptr @malloc(i64 noundef %30) #14
  store ptr %31, ptr %9, align 8
  %32 = load ptr, ptr %9, align 8
  %33 = icmp eq ptr %32, null
  br i1 %33, label %34, label %36

34:                                               ; preds = %26
  %35 = load ptr, ptr %4, align 8
  call void @CCout_of_memory(ptr noundef %35)
  br label %36

36:                                               ; preds = %34, %26
  %37 = load ptr, ptr %8, align 8
  %38 = getelementptr inbounds %struct.CCpool, ptr %37, i32 0, i32 0
  %39 = load ptr, ptr %38, align 8
  %40 = load ptr, ptr %9, align 8
  %41 = getelementptr inbounds %struct.CCpool, ptr %40, i32 0, i32 0
  store ptr %39, ptr %41, align 8
  %42 = load i32, ptr %5, align 4
  %43 = load ptr, ptr %9, align 8
  %44 = getelementptr inbounds %struct.CCpool, ptr %43, i32 0, i32 1
  store i32 %42, ptr %44, align 8
  %45 = load ptr, ptr %9, align 8
  %46 = load ptr, ptr %8, align 8
  %47 = getelementptr inbounds %struct.CCpool, ptr %46, i32 0, i32 0
  store ptr %45, ptr %47, align 8
  br label %69

48:                                               ; preds = %20
  %49 = load ptr, ptr %8, align 8
  %50 = getelementptr inbounds %struct.CCpool, ptr %49, i32 0, i32 0
  %51 = load ptr, ptr %50, align 8
  store ptr %51, ptr %9, align 8
  %52 = load ptr, ptr %9, align 8
  %53 = icmp eq ptr %52, null
  br i1 %53, label %54, label %68

54:                                               ; preds = %48
  %55 = call noalias ptr @malloc(i64 noundef 2016) #14
  store ptr %55, ptr %9, align 8
  %56 = load ptr, ptr %9, align 8
  %57 = icmp eq ptr %56, null
  br i1 %57, label %58, label %60

58:                                               ; preds = %54
  %59 = load ptr, ptr %4, align 8
  call void @CCout_of_memory(ptr noundef %59)
  br label %60

60:                                               ; preds = %58, %54
  %61 = load ptr, ptr %9, align 8
  %62 = load ptr, ptr %8, align 8
  %63 = getelementptr inbounds %struct.CCpool, ptr %62, i32 0, i32 0
  store ptr %61, ptr %63, align 8
  %64 = load ptr, ptr %9, align 8
  %65 = getelementptr inbounds %struct.CCpool, ptr %64, i32 0, i32 0
  store ptr null, ptr %65, align 8
  %66 = load ptr, ptr %9, align 8
  %67 = getelementptr inbounds %struct.CCpool, ptr %66, i32 0, i32 1
  store i32 2000, ptr %67, align 8
  br label %68

68:                                               ; preds = %60, %48
  br label %69

69:                                               ; preds = %68, %36
  %70 = load ptr, ptr %9, align 8
  %71 = load ptr, ptr %4, align 8
  %72 = getelementptr inbounds %struct.context_type, ptr %71, i32 0, i32 33
  store ptr %70, ptr %72, align 8
  %73 = load ptr, ptr %9, align 8
  %74 = getelementptr inbounds %struct.CCpool, ptr %73, i32 0, i32 3
  %75 = getelementptr inbounds [2000 x i8], ptr %74, i64 0, i64 0
  %76 = load ptr, ptr %4, align 8
  %77 = getelementptr inbounds %struct.context_type, ptr %76, i32 0, i32 34
  store ptr %75, ptr %77, align 8
  %78 = load ptr, ptr %9, align 8
  %79 = getelementptr inbounds %struct.CCpool, ptr %78, i32 0, i32 1
  %80 = load i32, ptr %79, align 8
  %81 = load ptr, ptr %4, align 8
  %82 = getelementptr inbounds %struct.context_type, ptr %81, i32 0, i32 35
  store i32 %80, ptr %82, align 8
  br label %83

83:                                               ; preds = %69, %3
  %84 = load ptr, ptr %4, align 8
  %85 = getelementptr inbounds %struct.context_type, ptr %84, i32 0, i32 34
  %86 = load ptr, ptr %85, align 8
  store ptr %86, ptr %7, align 8
  %87 = load i32, ptr %5, align 4
  %88 = load ptr, ptr %4, align 8
  %89 = getelementptr inbounds %struct.context_type, ptr %88, i32 0, i32 34
  %90 = load ptr, ptr %89, align 8
  %91 = sext i32 %87 to i64
  %92 = getelementptr inbounds i8, ptr %90, i64 %91
  store ptr %92, ptr %89, align 8
  %93 = load i32, ptr %5, align 4
  %94 = load ptr, ptr %4, align 8
  %95 = getelementptr inbounds %struct.context_type, ptr %94, i32 0, i32 35
  %96 = load i32, ptr %95, align 8
  %97 = sub nsw i32 %96, %93
  store i32 %97, ptr %95, align 8
  %98 = load i8, ptr %6, align 1
  %99 = icmp ne i8 %98, 0
  br i1 %99, label %100, label %104

100:                                              ; preds = %83
  %101 = load ptr, ptr %7, align 8
  %102 = load i32, ptr %5, align 4
  %103 = sext i32 %102 to i64
  call void @llvm.memset.p0.i64(ptr align 1 %101, i8 0, i64 %103, i1 false)
  br label %104

104:                                              ; preds = %100, %83
  %105 = load ptr, ptr %7, align 8
  ret ptr %105
}