; Function Attrs: nounwind uwtable
define internal fastcc ptr @CCalloc(ptr noundef %0, i32 noundef %1) unnamed_addr #0 {
  %3 = add i32 %1, 7
  %4 = and i32 %3, -8
  %5 = getelementptr inbounds i8, ptr %0, i64 616
  %6 = load i32, ptr %5, align 8
  %7 = icmp slt i32 %6, %4
  br i1 %7, label %8, label %._crit_edge

._crit_edge:                                      ; preds = %2
  %.phi.trans.insert = getelementptr inbounds i8, ptr %0, i64 608
  %.pre = load ptr, ptr %.phi.trans.insert, align 8
  br label %40

8:                                                ; preds = %2
  %9 = getelementptr inbounds i8, ptr %0, i64 600
  %10 = load ptr, ptr %9, align 8
  %11 = icmp sgt i32 %4, 2000
  br i1 %11, label %12, label %23

12:                                               ; preds = %8
  %narrow = add nuw i32 %4, 16
  %13 = zext i32 %narrow to i64
  %14 = tail call noalias ptr @malloc(i64 noundef %13) #19
  %15 = icmp eq ptr %14, null
  br i1 %15, label %16, label %20

16:                                               ; preds = %12
  %17 = tail call fastcc i32 @print_CCerror_info(ptr noundef nonnull %0)
  %18 = getelementptr inbounds i8, ptr %0, i64 20
  store i8 2, ptr %18, align 4
  %19 = getelementptr inbounds i8, ptr %0, i64 624
  tail call void @longjmp(ptr noundef nonnull %19, i32 noundef 1) #17
  unreachable

20:                                               ; preds = %12
  %21 = load ptr, ptr %10, align 8
  store ptr %21, ptr %14, align 8
  %22 = getelementptr inbounds i8, ptr %14, i64 8
  store i32 %4, ptr %22, align 8
  store ptr %14, ptr %10, align 8
  br label %35

23:                                               ; preds = %8
  %24 = load ptr, ptr %10, align 8
  %25 = icmp eq ptr %24, null
  br i1 %25, label %26, label %35

26:                                               ; preds = %23
  %27 = tail call noalias dereferenceable_or_null(2016) ptr @malloc(i64 noundef 2016) #19
  %28 = icmp eq ptr %27, null
  br i1 %28, label %29, label %33

29:                                               ; preds = %26
  %30 = tail call fastcc i32 @print_CCerror_info(ptr noundef nonnull %0)
  %31 = getelementptr inbounds i8, ptr %0, i64 20
  store i8 2, ptr %31, align 4
  %32 = getelementptr inbounds i8, ptr %0, i64 624
  tail call void @longjmp(ptr noundef nonnull %32, i32 noundef 1) #17
  unreachable

33:                                               ; preds = %26
  store ptr %27, ptr %10, align 8
  store ptr null, ptr %27, align 8
  %34 = getelementptr inbounds i8, ptr %27, i64 8
  store i32 2000, ptr %34, align 8
  br label %35

35:                                               ; preds = %23, %33, %20
  %.0 = phi ptr [ %14, %20 ], [ %27, %33 ], [ %24, %23 ]
  store ptr %.0, ptr %9, align 8
  %36 = getelementptr inbounds i8, ptr %.0, i64 16
  %37 = getelementptr inbounds i8, ptr %0, i64 608
  store ptr %36, ptr %37, align 8
  %38 = getelementptr inbounds i8, ptr %.0, i64 8
  %39 = load i32, ptr %38, align 8
  br label %40

40:                                               ; preds = %._crit_edge, %35
  %41 = phi i32 [ %6, %._crit_edge ], [ %39, %35 ]
  %42 = phi ptr [ %.pre, %._crit_edge ], [ %36, %35 ]
  %43 = getelementptr inbounds i8, ptr %0, i64 608
  %44 = sext i32 %4 to i64
  %45 = getelementptr inbounds i8, ptr %42, i64 %44
  store ptr %45, ptr %43, align 8
  %46 = sub nsw i32 %41, %4
  store i32 %46, ptr %5, align 8
  ret ptr %42
}